target datalayout = "e-m:e-p270:32:32-p271:32:32-p272:64:64-i64:64-i128:128-f80:128-n8:16:32:64-S128"
target triple = "x86_64-pc-linux-gnu"

%struct.asciicompat_encoding_t = type { ptr, ptr }
%struct.st_table = type { i8, i8, i8, i32, ptr, i64, ptr, i64, i64, ptr }
%struct.OnigEncodingTypeST = type { ptr, ptr, i32, i32, ptr, ptr, ptr, ptr, ptr, ptr, ptr, ptr, ptr, ptr, ptr, ptr, ptr, i32, i32 }

@transcoder_table = internal global ptr null, align 8

; Function Attrs: nounwind sspstrong uwtable
define internal ptr @make_dummy_encoding(ptr noundef %0) #0 {
  %2 = alloca ptr, align 8
  %3 = alloca ptr, align 8
  %4 = alloca i32, align 4
  store ptr %0, ptr %2, align 8, !tbaa !21
  call void @llvm.lifetime.start.p0(i64 8, ptr %3) #25
  call void @llvm.lifetime.start.p0(i64 4, ptr %4) #25
  %5 = load ptr, ptr %2, align 8, !tbaa !21
  %6 = call i32 @rb_define_dummy_encoding(ptr noundef %5)
  store i32 %6, ptr %4, align 4, !tbaa !29
  %7 = load i32, ptr %4, align 4, !tbaa !29
  %8 = call ptr @rb_enc_from_index(i32 noundef %7)
  store ptr %8, ptr %3, align 8, !tbaa !106
  %9 = load ptr, ptr %3, align 8, !tbaa !106
  call void @llvm.lifetime.end.p0(i64 4, ptr %4) #25
  call void @llvm.lifetime.end.p0(i64 8, ptr %3) #25
  ret ptr %9
}

; Function Attrs: inlinehint nounwind sspstrong uwtable
define internal ptr @rb_enc_name(ptr noundef %0) #7 {
  %2 = alloca ptr, align 8
  store ptr %0, ptr %2, align 8, !tbaa !106
  %3 = load ptr, ptr %2, align 8, !tbaa !106
  %4 = getelementptr inbounds nuw %struct.OnigEncodingTypeST, ptr %3, i32 0, i32 1
  %5 = load ptr, ptr %4, align 8, !tbaa !114
  ret ptr %5
}

; Function Attrs: nounwind sspstrong uwtable
define internal ptr @make_encoding(ptr noundef %0) #0 {
  %2 = alloca ptr, align 8
  %3 = alloca ptr, align 8
  store ptr %0, ptr %2, align 8, !tbaa !21
  call void @llvm.lifetime.start.p0(i64 8, ptr %3) #25
  %4 = load ptr, ptr %2, align 8, !tbaa !21
  %5 = call ptr @rb_enc_find(ptr noundef %4)
  store ptr %5, ptr %3, align 8, !tbaa !106
  %6 = load ptr, ptr %3, align 8, !tbaa !106
  %7 = icmp ne ptr %6, null
  br i1 %7, label %11, label %8

8:                                                ; preds = %1
  %9 = load ptr, ptr %2, align 8, !tbaa !21
  %10 = call ptr @make_dummy_encoding(ptr noundef %9)
  store ptr %10, ptr %3, align 8, !tbaa !106
  br label %11

11:                                               ; preds = %8, %1
  %12 = load ptr, ptr %3, align 8, !tbaa !106
  call void @llvm.lifetime.end.p0(i64 8, ptr %3) #25
  ret ptr %12
}

; Function Attrs: nounwind sspstrong uwtable
define dso_local ptr @rb_econv_asciicompat_encoding(ptr noundef %0) #0 {
  %2 = alloca ptr, align 8
  %3 = alloca ptr, align 8
  %4 = alloca i64, align 8
  %5 = alloca ptr, align 8
  %6 = alloca %struct.asciicompat_encoding_t, align 8
  %7 = alloca i32, align 4
  store ptr %0, ptr %3, align 8, !tbaa !21
  call void @llvm.lifetime.start.p0(i64 8, ptr %4) #25
  call void @llvm.lifetime.start.p0(i64 8, ptr %5) #25
  call void @llvm.lifetime.start.p0(i64 16, ptr %6) #25
  %8 = load ptr, ptr @transcoder_table, align 8, !tbaa !7
  %9 = load ptr, ptr %3, align 8, !tbaa !21
  %10 = ptrtoint ptr %9 to i64
  %11 = call i32 @rb_st_lookup(ptr noundef %8, i64 noundef %10, ptr noundef %4)
  %12 = icmp ne i32 %11, 0
  br i1 %12, label %14, label %13

13:                                               ; preds = %1
  store ptr null, ptr %2, align 8
  store i32 1, ptr %7, align 4
  br label %31

14:                                               ; preds = %1
  %15 = load i64, ptr %4, align 8, !tbaa !12
  %16 = inttoptr i64 %15 to ptr
  store ptr %16, ptr %5, align 8, !tbaa !7
  %17 = load ptr, ptr %5, align 8, !tbaa !7
  %18 = getelementptr inbounds nuw %struct.st_table, ptr %17, i32 0, i32 5
  %19 = load i64, ptr %18, align 8, !tbaa !96
  %20 = icmp ne i64 %19, 1
  br i1 %20, label %21, label %22

21:                                               ; preds = %14
  store ptr null, ptr %2, align 8
  store i32 1, ptr %7, align 4
  br label %31

22:                                               ; preds = %14
  %23 = load ptr, ptr %3, align 8, !tbaa !21
  %24 = getelementptr inbounds nuw %struct.asciicompat_encoding_t, ptr %6, i32 0, i32 1
  store ptr %23, ptr %24, align 8, !tbaa !100
  %25 = getelementptr inbounds nuw %struct.asciicompat_encoding_t, ptr %6, i32 0, i32 0
  store ptr null, ptr %25, align 8, !tbaa !102
  %26 = load ptr, ptr %5, align 8, !tbaa !7
  %27 = ptrtoint ptr %6 to i64
  %28 = call i32 @rb_st_foreach(ptr noundef %26, ptr noundef @asciicompat_encoding_i, i64 noundef %27)
  %29 = getelementptr inbounds nuw %struct.asciicompat_encoding_t, ptr %6, i32 0, i32 0
  %30 = load ptr, ptr %29, align 8, !tbaa !102
  store ptr %30, ptr %2, align 8
  store i32 1, ptr %7, align 4
  br label %31

31:                                               ; preds = %22, %21, %13
  call void @llvm.lifetime.end.p0(i64 16, ptr %6) #25
  call void @llvm.lifetime.end.p0(i64 8, ptr %5) #25
  call void @llvm.lifetime.end.p0(i64 8, ptr %4) #25
  %32 = load ptr, ptr %2, align 8
  ret ptr %32
}

; Function Attrs: nounwind sspstrong uwtable
define internal i32 @enc_arg(ptr noundef %0, ptr noundef %1, ptr noundef %2) #0 {
  %4 = alloca ptr, align 8
  %5 = alloca ptr, align 8
  %6 = alloca ptr, align 8
  %7 = alloca ptr, align 8
  %8 = alloca ptr, align 8
  %9 = alloca i32, align 4
  %10 = alloca i64, align 8
  store ptr %0, ptr %4, align 8, !tbaa !80
  store ptr %1, ptr %5, align 8, !tbaa !39
  store ptr %2, ptr %6, align 8, !tbaa !215
  call void @llvm.lifetime.start.p0(i64 8, ptr %7) #25
  call void @llvm.lifetime.start.p0(i64 8, ptr %8) #25
  call void @llvm.lifetime.start.p0(i64 4, ptr %9) #25
  call void @llvm.lifetime.start.p0(i64 8, ptr %10) #25
  %11 = load ptr, ptr %4, align 8, !tbaa !80
  %12 = load i64, ptr %11, align 8, !tbaa !12
  store i64 %12, ptr %10, align 8, !tbaa !12
  %13 = call i32 @rb_to_encoding_index(i64 noundef %12)
  store i32 %13, ptr %9, align 4, !tbaa !29
  %14 = icmp slt i32 %13, 0
  br i1 %14, label %19, label %15

15:                                               ; preds = %3
  %16 = load i32, ptr %9, align 4, !tbaa !29
  %17 = call ptr @rb_enc_from_index(i32 noundef %16)
  store ptr %17, ptr %7, align 8, !tbaa !106
  %18 = icmp ne ptr %17, null
  br i1 %18, label %22, label %19

19:                                               ; preds = %15, %3
  store ptr null, ptr %7, align 8, !tbaa !106
  store i32 0, ptr %9, align 4, !tbaa !29
  %20 = load ptr, ptr %4, align 8, !tbaa !80
  %21 = call ptr @rb_string_value_cstr(ptr noundef %20)
  store ptr %21, ptr %8, align 8, !tbaa !21
  br label %25

22:                                               ; preds = %15
  %23 = load ptr, ptr %7, align 8, !tbaa !106
  %24 = call ptr @rb_enc_name(ptr noundef %23)
  store ptr %24, ptr %8, align 8, !tbaa !21
  br label %25

25:                                               ; preds = %22, %19
  %26 = load ptr, ptr %8, align 8, !tbaa !21
  %27 = load ptr, ptr %5, align 8, !tbaa !39
  store ptr %26, ptr %27, align 8, !tbaa !21
  %28 = load ptr, ptr %7, align 8, !tbaa !106
  %29 = load ptr, ptr %6, align 8, !tbaa !215
  store ptr %28, ptr %29, align 8, !tbaa !106
  %30 = load i32, ptr %9, align 4, !tbaa !29
  call void @llvm.lifetime.end.p0(i64 8, ptr %10) #25
  call void @llvm.lifetime.end.p0(i64 4, ptr %9) #25
  call void @llvm.lifetime.end.p0(i64 8, ptr %8) #25
  call void @llvm.lifetime.end.p0(i64 8, ptr %7) #25
  ret i32 %30
}

; Function Attrs: nounwind sspstrong uwtable
define internal i64 @econv_s_asciicompat_encoding(i64 noundef %0, i64 noundef %1) #0 {
  %3 = alloca i64, align 8
  %4 = alloca i64, align 8
  %5 = alloca i64, align 8
  %6 = alloca ptr, align 8
  %7 = alloca ptr, align 8
  %8 = alloca ptr, align 8
  %9 = alloca ptr, align 8
  %10 = alloca i32, align 4
  store i64 %0, ptr %4, align 8, !tbaa !12
  store i64 %1, ptr %5, align 8, !tbaa !12
  call void @llvm.lifetime.start.p0(i64 8, ptr %6) #25
  call void @llvm.lifetime.start.p0(i64 8, ptr %7) #25
  call void @llvm.lifetime.start.p0(i64 8, ptr %8) #25
  call void @llvm.lifetime.start.p0(i64 8, ptr %9) #25
  %11 = call i32 @enc_arg(ptr noundef %5, ptr noundef %6, ptr noundef %8)
  %12 = load ptr, ptr %6, align 8, !tbaa !21
  %13 = call ptr @rb_econv_asciicompat_encoding(ptr noundef %12)
  store ptr %13, ptr %7, align 8, !tbaa !21
  %14 = load ptr, ptr %7, align 8, !tbaa !21
  %15 = icmp eq ptr %14, null
  br i1 %15, label %16, label %17

16:                                               ; preds = %2
  store i64 4, ptr %3, align 8
  store i32 1, ptr %10, align 4
  br label %22

17:                                               ; preds = %2
  %18 = load ptr, ptr %7, align 8, !tbaa !21
  %19 = call ptr @make_encoding(ptr noundef %18)
  store ptr %19, ptr %9, align 8, !tbaa !106
  %20 = load ptr, ptr %9, align 8, !tbaa !106
  %21 = call i64 @rb_enc_from_encoding(ptr noundef %20)
  store i64 %21, ptr %3, align 8
  store i32 1, ptr %10, align 4
  br label %22

22:                                               ; preds = %17, %16
  call void @llvm.lifetime.end.p0(i64 8, ptr %9) #25
  call void @llvm.lifetime.end.p0(i64 8, ptr %8) #25
  call void @llvm.lifetime.end.p0(i64 8, ptr %7) #25
  call void @llvm.lifetime.end.p0(i64 8, ptr %6) #25
  %23 = load i64, ptr %3, align 8
  ret i64 %23
}