; Function Attrs: nounwind sspstrong uwtable
define internal i64 @econv_s_asciicompat_encoding(i64 %0, i64 noundef %1) #0 {
  %3 = alloca i64, align 8
  %4 = alloca %struct.asciicompat_encoding_t, align 8
  %5 = alloca i64, align 8
  store i64 %1, ptr %5, align 8, !tbaa !22
  %6 = tail call i32 @rb_to_encoding_index(i64 noundef %1) #22
  %7 = icmp slt i32 %6, 0
  br i1 %7, label %10, label %8

8:                                                ; preds = %2
  %9 = tail call ptr @rb_enc_from_index(i32 noundef %6) #22
  %.not.i = icmp eq ptr %9, null
  br i1 %.not.i, label %10, label %12

10:                                               ; preds = %8, %2
  %11 = call ptr @rb_string_value_cstr(ptr noundef nonnull %5) #22
  br label %enc_arg.exit

12:                                               ; preds = %8
  %13 = getelementptr i8, ptr %9, i64 8
  %.val.i = load ptr, ptr %13, align 8, !tbaa !146
  br label %enc_arg.exit

enc_arg.exit:                                     ; preds = %10, %12
  %.09.i = phi ptr [ %11, %10 ], [ %.val.i, %12 ]
  call void @llvm.lifetime.start.p0(i64 8, ptr nonnull %3) #22
  call void @llvm.lifetime.start.p0(i64 16, ptr nonnull %4) #22
  %14 = load ptr, ptr @transcoder_table, align 8, !tbaa !7
  %15 = ptrtoint ptr %.09.i to i64
  %16 = call i32 @rb_st_lookup(ptr noundef %14, i64 noundef %15, ptr noundef nonnull %3) #22
  %.not.i4 = icmp eq i32 %16, 0
  br i1 %.not.i4, label %rb_econv_asciicompat_encoding.exit.thread, label %17

17:                                               ; preds = %enc_arg.exit
  %18 = load i64, ptr %3, align 8, !tbaa !22
  %19 = inttoptr i64 %18 to ptr
  %20 = getelementptr inbounds nuw i8, ptr %19, i64 16
  %21 = load i64, ptr %20, align 8, !tbaa !102
  %.not5.i = icmp eq i64 %21, 1
  br i1 %.not5.i, label %rb_econv_asciicompat_encoding.exit, label %rb_econv_asciicompat_encoding.exit.thread

rb_econv_asciicompat_encoding.exit.thread:        ; preds = %enc_arg.exit, %17
  call void @llvm.lifetime.end.p0(i64 16, ptr nonnull %4) #22
  call void @llvm.lifetime.end.p0(i64 8, ptr nonnull %3) #22
  br label %33

rb_econv_asciicompat_encoding.exit:               ; preds = %17
  %22 = getelementptr inbounds nuw i8, ptr %4, i64 8
  store ptr %.09.i, ptr %22, align 8, !tbaa !107
  store ptr null, ptr %4, align 8, !tbaa !109
  %23 = ptrtoint ptr %4 to i64
  %24 = call i32 @rb_st_foreach(ptr noundef nonnull %19, ptr noundef nonnull @asciicompat_encoding_i, i64 noundef %23) #22
  %25 = load ptr, ptr %4, align 8, !tbaa !109
  call void @llvm.lifetime.end.p0(i64 16, ptr nonnull %4) #22
  call void @llvm.lifetime.end.p0(i64 8, ptr nonnull %3) #22
  %26 = icmp eq ptr %25, null
  br i1 %26, label %33, label %27

27:                                               ; preds = %rb_econv_asciicompat_encoding.exit
  %28 = call ptr @rb_enc_find(ptr noundef nonnull %25) #22
  %.not.i6 = icmp eq ptr %28, null
  br i1 %.not.i6, label %29, label %make_encoding.exit

29:                                               ; preds = %27
  %30 = call i32 @rb_define_dummy_encoding(ptr noundef nonnull %25) #22
  %31 = call ptr @rb_enc_from_index(i32 noundef %30) #22
  br label %make_encoding.exit

make_encoding.exit:                               ; preds = %27, %29
  %.0.i7 = phi ptr [ %28, %27 ], [ %31, %29 ]
  %32 = call i64 @rb_enc_from_encoding(ptr noundef %.0.i7) #22
  br label %33

33:                                               ; preds = %rb_econv_asciicompat_encoding.exit.thread, %rb_econv_asciicompat_encoding.exit, %make_encoding.exit
  %.0 = phi i64 [ %32, %make_encoding.exit ], [ 4, %rb_econv_asciicompat_encoding.exit ], [ 4, %rb_econv_asciicompat_encoding.exit.thread ]
  ret i64 %.0
}